target datalayout = "e-m:e-p270:32:32-p271:32:32-p272:64:64-i64:64-i128:128-f80:128-n8:16:32:64-S128"
target triple = "x86_64-pc-linux-gnu"

%class.ciEnv = type <{ ptr, %class.Arena, ptr, ptr, ptr, ptr, %class.CHeapStringHolder, i8, [3 x i8], i32, i8, [3 x i8], i32, ptr, ptr, ptr, ptr, i32, [4 x i8], i64, i8, i8, i8, i8, i8, i8, i8, i8, ptr, ptr, ptr, ptr, ptr, ptr, ptr, ptr, ptr, [1025 x i8], [7 x i8] }>
%class.Arena = type { i8, i8, i64, ptr, ptr, ptr, ptr }
%class.CHeapStringHolder = type { ptr }

@DTraceMethodProbes = external global i8, align 1
@DTraceAllocProbes = external global i8, align 1

; Function Attrs: mustprogress nounwind uwtable
define hidden void @_ZN5ciEnv18cache_dtrace_flagsEv(ptr noundef nonnull align 8 dereferenceable(1265) %0) #1 align 2 {
  %2 = alloca ptr, align 8
  store ptr %0, ptr %2, align 8
  %3 = load ptr, ptr %2, align 8
  %4 = load i8, ptr @DTraceMethodProbes, align 1
  %5 = trunc i8 %4 to i1
  %6 = getelementptr inbounds %class.ciEnv, ptr %3, i32 0, i32 26
  %7 = zext i1 %5 to i8
  store i8 %7, ptr %6, align 2
  %8 = load i8, ptr @DTraceAllocProbes, align 1
  %9 = trunc i8 %8 to i1
  %10 = getelementptr inbounds %class.ciEnv, ptr %3, i32 0, i32 27
  %11 = zext i1 %9 to i8
  store i8 %11, ptr %10, align 1
  ret void
}