; Function Attrs: mustprogress nofree norecurse nosync nounwind willreturn memory(read, argmem: write, inaccessiblemem: none) uwtable
define hidden void @_ZN5ciEnv18cache_dtrace_flagsEv(ptr nocapture noundef nonnull writeonly align 8 dereferenceable(1265) %0) local_unnamed_addr #5 align 2 {
  %2 = load i8, ptr @DTraceMethodProbes, align 1
  %3 = getelementptr inbounds i8, ptr %0, i64 166
  %4 = and i8 %2, 1
  store i8 %4, ptr %3, align 2
  %5 = load i8, ptr @DTraceAllocProbes, align 1
  %6 = getelementptr inbounds i8, ptr %0, i64 167
  %7 = and i8 %5, 1
  store i8 %7, ptr %6, align 1
  ret void
}